(dp0
S'Tom'
p1
(dp2
S'phone_number'
p3
S'486-388-5986'
p4
sS'name'
p5
g1
sS'website_url'
p6
S'www.tom.com'
p7
sS'email'
p8
S'tom@microsoft.com'
p9
ssS'Melissa'
p10
(dp11
S'phone_number'
p12
S'123-456-7890'
p13
sS'name'
p14
S'Melissa'
p15
sS'website_url'
p16
S'www.meli.com'
p17
sS'email'
p18
S'melissa@gmail.com'
p19
ssS'Fred'
p20
(dp21
S'phone_number'
p22
S'124-678-9847'
p23
sS'name'
p24
S'Fred'
p25
sS'website_url'
p26
S'www.fred.com'
p27
sS'email'
p28
S'fred@yahoo.com'
p29
ss.