(dp0
S'Melissa'
p1
(dp2
S'phone_number'
p3
S'123-456-7890'
p4
sS'name'
p5
g1
ss.(dp0
S'Fred'
p1
(dp2
S'phone_number'
p3
S'124-678-9847'
p4
sS'name'
p5
g1
sS'website_url'
p6
S'www.fred.com'
p7
sS'email'
p8
S'fred@yahoo.com'
p9
ss.(dp0
S'Melissa'
p1
(dp2
S'phone_number'
p3
S'123'
p4
sS'name'
p5
g1
sS'website_url'
p6
S'www.meli.com'
p7
sS'email'
p8
S'meli@gmail.com'
p9
ss.(dp0
S'Melissa'
p1
(dp2
S'phone_number'
p3
S'123-456-7890'
p4
sS'name'
p5
S'Melissa'
p6
sS'website_url'
p7
S'www.meli.com'
p8
sS'email'
p9
S'melissa@gmail.com'
p10
ssS'Fred'
p11
(dp12
S'phone_number'
p13
S'124-678-9847'
p14
sS'name'
p15
g11
sS'website_url'
p16
S'www.fred.com'
p17
sS'email'
p18
S'fred@yahoo.com'
p19
ss.